target datalayout = "e-m:e-p270:32:32-p271:32:32-p272:64:64-i64:64-i128:128-f80:128-n8:16:32:64-S128"
target triple = "x86_64-pc-linux-gnu"

%struct.mbedtls_ssl_context = type { ptr, i32, i32, i32, i32, i32, ptr, ptr, ptr, ptr, ptr, ptr, ptr, ptr, ptr, ptr, ptr, ptr, ptr, ptr, ptr, ptr, ptr, ptr, ptr, ptr, ptr, ptr, ptr, ptr, ptr, ptr, ptr, i32, i64, i64, i16, i64, i64, i64, i64, i32, i32, i8, i8, i32, i8, ptr, ptr, ptr, ptr, ptr, ptr, ptr, i32, i64, i64, [8 x i8], i16, ptr, ptr, ptr, i64, i32, i64, [12 x i8], [12 x i8], [32 x i8], i8, i8, ptr, ptr, %union.mbedtls_ssl_user_data_t }
%union.mbedtls_ssl_user_data_t = type { i64 }
%struct.mbedtls_ssl_config = type { i32, i32, i8, i8, i8, i8, i8, i8, i8, i8, i8, i8, i16, i8, i8, i8, ptr, i32, ptr, ptr, ptr, ptr, ptr, ptr, ptr, ptr, ptr, ptr, ptr, ptr, ptr, ptr, ptr, ptr, ptr, ptr, ptr, i64, ptr, ptr, ptr, ptr, ptr, ptr, ptr, ptr, %struct.mbedtls_mpi, %struct.mbedtls_mpi, ptr, i64, ptr, i64, ptr, i32, i32, i32, i32, [8 x i8], i32, i32, %union.mbedtls_ssl_user_data_t, ptr, ptr }
%struct.mbedtls_mpi = type { ptr, i16, i16 }
%struct.mbedtls_ssl_session = type { i8, i8, i8, i32, i64, i32, i64, [32 x i8], [48 x i8], ptr, i32, ptr, i64, i32, i64, i32, i8, i8, [48 x i8], ptr, i64, i32, %struct.mbedtls_ssl_tls13_application_secrets }
%struct.mbedtls_ssl_tls13_application_secrets = type { [64 x i8], [64 x i8], [64 x i8], [64 x i8] }
%struct.mbedtls_ssl_handshake_params = type { i8, i8, i8, i8, i8, i32, i8, i8, i8, i8, ptr, ptr, ptr, ptr, ptr, i8, i8, i8, i8, i16, i16, [20 x i16], ptr, ptr, %struct.mbedtls_dhm_context, %struct.mbedtls_ecdh_context, i16, i64, i32, i8, [1024 x i8], i64, ptr, ptr, i64, i16, ptr, ptr, ptr, ptr, %struct.anon, ptr, i16, i8, i32, i32, i32, ptr, ptr, ptr, i32, ptr, [8 x i8], i8, [32 x i8], i8, i16, %struct.mbedtls_md_context_t, %struct.mbedtls_md_context_t, i16, i8, %union.anon.1, [64 x i8], [1076 x i8], i64, i32, i32, i8, ptr, ptr, %union.anon.4, %struct.mbedtls_ssl_tls13_handshake_secrets, ptr, i64, ptr }
%struct.mbedtls_dhm_context = type { %struct.mbedtls_mpi, %struct.mbedtls_mpi, %struct.mbedtls_mpi, %struct.mbedtls_mpi, %struct.mbedtls_mpi, %struct.mbedtls_mpi, %struct.mbedtls_mpi, %struct.mbedtls_mpi, %struct.mbedtls_mpi, %struct.mbedtls_mpi }
%struct.mbedtls_ecdh_context = type { i8, i32, i32, %union.anon }
%union.anon = type { %struct.mbedtls_ecdh_context_mbed }
%struct.mbedtls_ecdh_context_mbed = type { %struct.mbedtls_ecp_group, %struct.mbedtls_mpi, %struct.mbedtls_ecp_point, %struct.mbedtls_ecp_point, %struct.mbedtls_mpi }
%struct.mbedtls_ecp_group = type { i32, %struct.mbedtls_mpi, %struct.mbedtls_mpi, %struct.mbedtls_mpi, %struct.mbedtls_ecp_point, %struct.mbedtls_mpi, i64, i64, i32, ptr, ptr, ptr, ptr, ptr, i64 }
%struct.mbedtls_ecp_point = type { %struct.mbedtls_mpi, %struct.mbedtls_mpi, %struct.mbedtls_mpi }
%struct.anon = type { i64, i8, [4 x %struct.mbedtls_ssl_hs_buffer], %struct.anon.0 }
%struct.mbedtls_ssl_hs_buffer = type { i8, ptr, i64 }
%struct.anon.0 = type { ptr, i64, i32 }
%struct.mbedtls_md_context_t = type { ptr, ptr, ptr }
%union.anon.1 = type { %struct.anon.2 }
%struct.anon.2 = type { i8, [64 x i8], i64 }
%union.anon.4 = type { [64 x i8] }
%struct.mbedtls_ssl_tls13_handshake_secrets = type { [64 x i8], [64 x i8] }
%struct.mbedtls_x509_crt = type { i32, %struct.mbedtls_asn1_buf, %struct.mbedtls_asn1_buf, i32, %struct.mbedtls_asn1_buf, %struct.mbedtls_asn1_buf, %struct.mbedtls_asn1_buf, %struct.mbedtls_asn1_buf, %struct.mbedtls_asn1_named_data, %struct.mbedtls_asn1_named_data, %struct.mbedtls_x509_time, %struct.mbedtls_x509_time, %struct.mbedtls_asn1_buf, %struct.mbedtls_pk_context, %struct.mbedtls_asn1_buf, %struct.mbedtls_asn1_buf, %struct.mbedtls_asn1_buf, %struct.mbedtls_asn1_sequence, %struct.mbedtls_asn1_buf, %struct.mbedtls_x509_authority, %struct.mbedtls_asn1_sequence, i32, i32, i32, i32, %struct.mbedtls_asn1_sequence, i8, %struct.mbedtls_asn1_buf, i32, i32, ptr, ptr }
%struct.mbedtls_asn1_named_data = type { %struct.mbedtls_asn1_buf, %struct.mbedtls_asn1_buf, ptr, i8 }
%struct.mbedtls_x509_time = type { i32, i32, i32, i32, i32, i32 }
%struct.mbedtls_pk_context = type { ptr, ptr }
%struct.mbedtls_x509_authority = type { %struct.mbedtls_asn1_buf, %struct.mbedtls_asn1_sequence, %struct.mbedtls_asn1_buf, %struct.mbedtls_asn1_buf }
%struct.mbedtls_asn1_sequence = type { %struct.mbedtls_asn1_buf, ptr }
%struct.mbedtls_asn1_buf = type { i32, i64, ptr }

@.str = private unnamed_addr constant [130 x i8] c"generated/home/dtcxzyw/WorkSpace/Projects/compilers/llvm-opt-benchmark/bench/lief/bench_build/mbed_src/library/ssl_tls12_client.c\00", align 1
@.str.83 = private unnamed_addr constant [20 x i8] c"should never happen\00", align 1
@.str.124 = private unnamed_addr constant [35 x i8] c"buffer too small for encrypted pms\00", align 1
@.str.125 = private unnamed_addr constant [6 x i8] c"f_rng\00", align 1
@.str.126 = private unnamed_addr constant [30 x i8] c"certificate key type mismatch\00", align 1
@.str.127 = private unnamed_addr constant [26 x i8] c"mbedtls_rsa_pkcs1_encrypt\00", align 1

; Function Attrs: alwaysinline nounwind uwtable
define internal void @mbedtls_put_unaligned_uint16(ptr noundef %0, i16 noundef zeroext %1) #4 {
  %3 = alloca ptr, align 8
  %4 = alloca i16, align 2
  store ptr %0, ptr %3, align 8, !tbaa !88
  store i16 %1, ptr %4, align 2, !tbaa !92
  %5 = load ptr, ptr %3, align 8, !tbaa !88
  call void @llvm.memcpy.p0.p0.i64(ptr align 1 %5, ptr align 2 %4, i64 2, i1 false)
  ret void
}

; Function Attrs: nounwind uwtable
define internal i32 @ssl_write_encrypted_pms(ptr noundef %0, i64 noundef %1, ptr noundef %2, i64 noundef %3) #0 {
  %5 = alloca i32, align 4
  %6 = alloca ptr, align 8
  %7 = alloca i64, align 8
  %8 = alloca ptr, align 8
  %9 = alloca i64, align 8
  %10 = alloca i32, align 4
  %11 = alloca i64, align 8
  %12 = alloca ptr, align 8
  %13 = alloca ptr, align 8
  %14 = alloca i32, align 4
  store ptr %0, ptr %6, align 8, !tbaa !3
  store i64 %1, ptr %7, align 8, !tbaa !14
  store ptr %2, ptr %8, align 8, !tbaa !12
  store i64 %3, ptr %9, align 8, !tbaa !14
  call void @llvm.lifetime.start.p0(i64 4, ptr %10) #11
  store i32 -110, ptr %10, align 4, !tbaa !10
  call void @llvm.lifetime.start.p0(i64 8, ptr %11) #11
  store i64 2, ptr %11, align 8, !tbaa !14
  call void @llvm.lifetime.start.p0(i64 8, ptr %12) #11
  %15 = load ptr, ptr %6, align 8, !tbaa !3
  %16 = getelementptr inbounds nuw %struct.mbedtls_ssl_context, ptr %15, i32 0, i32 16
  %17 = load ptr, ptr %16, align 8, !tbaa !48
  %18 = getelementptr inbounds nuw %struct.mbedtls_ssl_handshake_params, ptr %17, i32 0, i32 63
  %19 = getelementptr inbounds [1076 x i8], ptr %18, i64 0, i64 0
  %20 = load i64, ptr %9, align 8, !tbaa !14
  %21 = getelementptr inbounds nuw i8, ptr %19, i64 %20
  store ptr %21, ptr %12, align 8, !tbaa !8
  call void @llvm.lifetime.start.p0(i64 8, ptr %13) #11
  %22 = load i64, ptr %7, align 8, !tbaa !14
  %23 = load i64, ptr %11, align 8, !tbaa !14
  %24 = add i64 %22, %23
  %25 = icmp ugt i64 %24, 16384
  br i1 %25, label %26, label %28

26:                                               ; preds = %4
  %27 = load ptr, ptr %6, align 8, !tbaa !3
  call void (ptr, i32, ptr, i32, ptr, ...) @mbedtls_debug_print_msg(ptr noundef %27, i32 noundef 1, ptr noundef @.str, i32 noundef 1922, ptr noundef @.str.124)
  store i32 -27136, ptr %5, align 4
  store i32 1, ptr %14, align 4
  br label %132

28:                                               ; preds = %4
  %29 = load ptr, ptr %12, align 8, !tbaa !8
  %30 = load ptr, ptr %6, align 8, !tbaa !3
  %31 = getelementptr inbounds nuw %struct.mbedtls_ssl_context, ptr %30, i32 0, i32 0
  %32 = load ptr, ptr %31, align 8, !tbaa !25
  %33 = getelementptr inbounds nuw %struct.mbedtls_ssl_config, ptr %32, i32 0, i32 3
  %34 = load i8, ptr %33, align 1, !tbaa !26
  %35 = zext i8 %34 to i32
  call void @mbedtls_ssl_write_version(ptr noundef %29, i32 noundef %35, i32 noundef 771)
  %36 = load ptr, ptr %6, align 8, !tbaa !3
  %37 = getelementptr inbounds nuw %struct.mbedtls_ssl_context, ptr %36, i32 0, i32 0
  %38 = load ptr, ptr %37, align 8, !tbaa !25
  %39 = getelementptr inbounds nuw %struct.mbedtls_ssl_config, ptr %38, i32 0, i32 20
  %40 = load ptr, ptr %39, align 8, !tbaa !104
  %41 = load ptr, ptr %6, align 8, !tbaa !3
  %42 = getelementptr inbounds nuw %struct.mbedtls_ssl_context, ptr %41, i32 0, i32 0
  %43 = load ptr, ptr %42, align 8, !tbaa !25
  %44 = getelementptr inbounds nuw %struct.mbedtls_ssl_config, ptr %43, i32 0, i32 21
  %45 = load ptr, ptr %44, align 8, !tbaa !105
  %46 = load ptr, ptr %12, align 8, !tbaa !8
  %47 = getelementptr inbounds i8, ptr %46, i64 2
  %48 = call i32 %40(ptr noundef %45, ptr noundef %47, i64 noundef 46)
  store i32 %48, ptr %10, align 4, !tbaa !10
  %49 = icmp ne i32 %48, 0
  br i1 %49, label %50, label %54

50:                                               ; preds = %28
  %51 = load ptr, ptr %6, align 8, !tbaa !3
  %52 = load i32, ptr %10, align 4, !tbaa !10
  call void @mbedtls_debug_print_ret(ptr noundef %51, i32 noundef 1, ptr noundef @.str, i32 noundef 1937, ptr noundef @.str.125, i32 noundef %52)
  %53 = load i32, ptr %10, align 4, !tbaa !10
  store i32 %53, ptr %5, align 4
  store i32 1, ptr %14, align 4
  br label %132

54:                                               ; preds = %28
  %55 = load ptr, ptr %6, align 8, !tbaa !3
  %56 = getelementptr inbounds nuw %struct.mbedtls_ssl_context, ptr %55, i32 0, i32 16
  %57 = load ptr, ptr %56, align 8, !tbaa !48
  %58 = getelementptr inbounds nuw %struct.mbedtls_ssl_handshake_params, ptr %57, i32 0, i32 64
  store i64 48, ptr %58, align 8, !tbaa !140
  %59 = load ptr, ptr %6, align 8, !tbaa !3
  %60 = getelementptr inbounds nuw %struct.mbedtls_ssl_context, ptr %59, i32 0, i32 15
  %61 = load ptr, ptr %60, align 8, !tbaa !42
  %62 = getelementptr inbounds nuw %struct.mbedtls_ssl_session, ptr %61, i32 0, i32 9
  %63 = load ptr, ptr %62, align 8, !tbaa !89
  %64 = icmp eq ptr %63, null
  br i1 %64, label %65, label %67

65:                                               ; preds = %54
  %66 = load ptr, ptr %6, align 8, !tbaa !3
  call void (ptr, i32, ptr, i32, ptr, ...) @mbedtls_debug_print_msg(ptr noundef %66, i32 noundef 1, ptr noundef @.str, i32 noundef 1948, ptr noundef @.str.83)
  store i32 -27648, ptr %5, align 4
  store i32 1, ptr %14, align 4
  br label %132

67:                                               ; preds = %54
  %68 = load ptr, ptr %6, align 8, !tbaa !3
  %69 = getelementptr inbounds nuw %struct.mbedtls_ssl_context, ptr %68, i32 0, i32 15
  %70 = load ptr, ptr %69, align 8, !tbaa !42
  %71 = getelementptr inbounds nuw %struct.mbedtls_ssl_session, ptr %70, i32 0, i32 9
  %72 = load ptr, ptr %71, align 8, !tbaa !89
  %73 = getelementptr inbounds nuw %struct.mbedtls_x509_crt, ptr %72, i32 0, i32 13
  store ptr %73, ptr %13, align 8, !tbaa !90
  %74 = load ptr, ptr %13, align 8, !tbaa !90
  %75 = call i32 @mbedtls_pk_can_do(ptr noundef %74, i32 noundef 1)
  %76 = icmp ne i32 %75, 0
  br i1 %76, label %79, label %77

77:                                               ; preds = %67
  %78 = load ptr, ptr %6, align 8, !tbaa !3
  call void (ptr, i32, ptr, i32, ptr, ...) @mbedtls_debug_print_msg(ptr noundef %78, i32 noundef 1, ptr noundef @.str, i32 noundef 1958, ptr noundef @.str.126)
  store i32 -27904, ptr %5, align 4
  store i32 1, ptr %14, align 4
  br label %132

79:                                               ; preds = %67
  %80 = load ptr, ptr %13, align 8, !tbaa !90
  %81 = load ptr, ptr %12, align 8, !tbaa !8
  %82 = load ptr, ptr %6, align 8, !tbaa !3
  %83 = getelementptr inbounds nuw %struct.mbedtls_ssl_context, ptr %82, i32 0, i32 16
  %84 = load ptr, ptr %83, align 8, !tbaa !48
  %85 = getelementptr inbounds nuw %struct.mbedtls_ssl_handshake_params, ptr %84, i32 0, i32 64
  %86 = load i64, ptr %85, align 8, !tbaa !140
  %87 = load ptr, ptr %6, align 8, !tbaa !3
  %88 = getelementptr inbounds nuw %struct.mbedtls_ssl_context, ptr %87, i32 0, i32 53
  %89 = load ptr, ptr %88, align 8, !tbaa !103
  %90 = load i64, ptr %7, align 8, !tbaa !14
  %91 = getelementptr inbounds nuw i8, ptr %89, i64 %90
  %92 = load i64, ptr %11, align 8, !tbaa !14
  %93 = getelementptr inbounds nuw i8, ptr %91, i64 %92
  %94 = load ptr, ptr %8, align 8, !tbaa !12
  %95 = load i64, ptr %7, align 8, !tbaa !14
  %96 = sub i64 16384, %95
  %97 = load i64, ptr %11, align 8, !tbaa !14
  %98 = sub i64 %96, %97
  %99 = load ptr, ptr %6, align 8, !tbaa !3
  %100 = getelementptr inbounds nuw %struct.mbedtls_ssl_context, ptr %99, i32 0, i32 0
  %101 = load ptr, ptr %100, align 8, !tbaa !25
  %102 = getelementptr inbounds nuw %struct.mbedtls_ssl_config, ptr %101, i32 0, i32 20
  %103 = load ptr, ptr %102, align 8, !tbaa !104
  %104 = load ptr, ptr %6, align 8, !tbaa !3
  %105 = getelementptr inbounds nuw %struct.mbedtls_ssl_context, ptr %104, i32 0, i32 0
  %106 = load ptr, ptr %105, align 8, !tbaa !25
  %107 = getelementptr inbounds nuw %struct.mbedtls_ssl_config, ptr %106, i32 0, i32 21
  %108 = load ptr, ptr %107, align 8, !tbaa !105
  %109 = call i32 @mbedtls_pk_encrypt(ptr noundef %80, ptr noundef %81, i64 noundef %86, ptr noundef %93, ptr noundef %94, i64 noundef %98, ptr noundef %103, ptr noundef %108)
  store i32 %109, ptr %10, align 4, !tbaa !10
  %110 = icmp ne i32 %109, 0
  br i1 %110, label %111, label %115

111:                                              ; preds = %79
  %112 = load ptr, ptr %6, align 8, !tbaa !3
  %113 = load i32, ptr %10, align 4, !tbaa !10
  call void @mbedtls_debug_print_ret(ptr noundef %112, i32 noundef 1, ptr noundef @.str, i32 noundef 1967, ptr noundef @.str.127, i32 noundef %113)
  %114 = load i32, ptr %10, align 4, !tbaa !10
  store i32 %114, ptr %5, align 4
  store i32 1, ptr %14, align 4
  br label %132

115:                                              ; preds = %79
  %116 = load i64, ptr %11, align 8, !tbaa !14
  %117 = icmp eq i64 %116, 2
  br i1 %117, label %118, label %131

118:                                              ; preds = %115
  %119 = load ptr, ptr %6, align 8, !tbaa !3
  %120 = getelementptr inbounds nuw %struct.mbedtls_ssl_context, ptr %119, i32 0, i32 53
  %121 = load ptr, ptr %120, align 8, !tbaa !103
  %122 = load i64, ptr %7, align 8, !tbaa !14
  %123 = getelementptr inbounds nuw i8, ptr %121, i64 %122
  %124 = load ptr, ptr %8, align 8, !tbaa !12
  %125 = load i64, ptr %124, align 8, !tbaa !14
  %126 = trunc i64 %125 to i16
  %127 = call i16 @llvm.bswap.i16(i16 %126)
  call void @mbedtls_put_unaligned_uint16(ptr noundef %123, i16 noundef zeroext %127)
  %128 = load ptr, ptr %8, align 8, !tbaa !12
  %129 = load i64, ptr %128, align 8, !tbaa !14
  %130 = add i64 %129, 2
  store i64 %130, ptr %128, align 8, !tbaa !14
  br label %131

131:                                              ; preds = %118, %115
  store i32 0, ptr %5, align 4
  store i32 1, ptr %14, align 4
  br label %132

132:                                              ; preds = %131, %111, %77, %65, %50, %26
  call void @llvm.lifetime.end.p0(i64 8, ptr %13) #11
  call void @llvm.lifetime.end.p0(i64 8, ptr %12) #11
  call void @llvm.lifetime.end.p0(i64 8, ptr %11) #11
  call void @llvm.lifetime.end.p0(i64 4, ptr %10) #11
  %133 = load i32, ptr %5, align 4
  ret i32 %133
}