; Function Attrs: nounwind uwtable
define internal fastcc i32 @ssl_write_encrypted_pms(ptr noundef %0, i64 noundef %1, ptr noundef nonnull %2, i64 noundef range(i64 0, 3) %3) unnamed_addr #0 {
  %5 = getelementptr inbounds nuw i8, ptr %0, i64 112
  %6 = load ptr, ptr %5, align 8, !tbaa !44
  %7 = getelementptr inbounds nuw i8, ptr %6, i64 2184
  %8 = getelementptr inbounds nuw i8, ptr %7, i64 %3
  %9 = add i64 %1, -16383
  %10 = icmp ult i64 %9, -16385
  br i1 %10, label %11, label %12

11:                                               ; preds = %4
  tail call void (ptr, i32, ptr, i32, ptr, ...) @mbedtls_debug_print_msg(ptr noundef nonnull %0, i32 noundef 1, ptr noundef nonnull @.str, i32 noundef 1922, ptr noundef nonnull @.str.124) #14
  br label %62

12:                                               ; preds = %4
  %13 = load ptr, ptr %0, align 8, !tbaa !19
  %14 = getelementptr inbounds nuw i8, ptr %13, i64 9
  %15 = load i8, ptr %14, align 1, !tbaa !20
  %16 = zext i8 %15 to i32
  tail call void @mbedtls_ssl_write_version(ptr noundef nonnull %8, i32 noundef %16, i32 noundef 771) #14
  %17 = load ptr, ptr %0, align 8, !tbaa !19
  %18 = getelementptr inbounds nuw i8, ptr %17, i64 56
  %19 = load ptr, ptr %18, align 8, !tbaa !98
  %20 = getelementptr inbounds nuw i8, ptr %17, i64 64
  %21 = load ptr, ptr %20, align 8, !tbaa !99
  %22 = getelementptr inbounds nuw i8, ptr %8, i64 2
  %23 = tail call i32 %19(ptr noundef %21, ptr noundef nonnull %22, i64 noundef 46) #14
  %.not = icmp eq i32 %23, 0
  br i1 %.not, label %25, label %24

24:                                               ; preds = %12
  tail call void @mbedtls_debug_print_ret(ptr noundef nonnull %0, i32 noundef 1, ptr noundef nonnull @.str, i32 noundef 1937, ptr noundef nonnull @.str.125, i32 noundef %23) #14
  br label %62

25:                                               ; preds = %12
  %26 = load ptr, ptr %5, align 8, !tbaa !44
  %27 = getelementptr inbounds nuw i8, ptr %26, i64 3264
  store i64 48, ptr %27, align 8, !tbaa !131
  %28 = getelementptr inbounds nuw i8, ptr %0, i64 104
  %29 = load ptr, ptr %28, align 8, !tbaa !37
  %30 = getelementptr inbounds nuw i8, ptr %29, i64 112
  %31 = load ptr, ptr %30, align 8, !tbaa !86
  %32 = icmp eq ptr %31, null
  br i1 %32, label %33, label %34

33:                                               ; preds = %25
  tail call void (ptr, i32, ptr, i32, ptr, ...) @mbedtls_debug_print_msg(ptr noundef nonnull %0, i32 noundef 1, ptr noundef nonnull @.str, i32 noundef 1948, ptr noundef nonnull @.str.83) #14
  br label %62

34:                                               ; preds = %25
  %35 = getelementptr inbounds nuw i8, ptr %31, i64 360
  %36 = tail call i32 @mbedtls_pk_can_do(ptr noundef nonnull %35, i32 noundef 1) #14
  %.not41 = icmp eq i32 %36, 0
  br i1 %.not41, label %37, label %38

37:                                               ; preds = %34
  tail call void (ptr, i32, ptr, i32, ptr, ...) @mbedtls_debug_print_msg(ptr noundef nonnull %0, i32 noundef 1, ptr noundef nonnull @.str, i32 noundef 1958, ptr noundef nonnull @.str.126) #14
  br label %62

38:                                               ; preds = %34
  %39 = load ptr, ptr %5, align 8, !tbaa !44
  %40 = getelementptr inbounds nuw i8, ptr %39, i64 3264
  %41 = load i64, ptr %40, align 8, !tbaa !131
  %42 = getelementptr inbounds nuw i8, ptr %0, i64 384
  %43 = load ptr, ptr %42, align 8, !tbaa !97
  %44 = getelementptr inbounds nuw i8, ptr %43, i64 %1
  %45 = getelementptr inbounds nuw i8, ptr %44, i64 2
  %46 = sub nsw i64 16382, %1
  %47 = load ptr, ptr %0, align 8, !tbaa !19
  %48 = getelementptr inbounds nuw i8, ptr %47, i64 56
  %49 = load ptr, ptr %48, align 8, !tbaa !98
  %50 = getelementptr inbounds nuw i8, ptr %47, i64 64
  %51 = load ptr, ptr %50, align 8, !tbaa !99
  %52 = tail call i32 @mbedtls_pk_encrypt(ptr noundef nonnull %35, ptr noundef nonnull %8, i64 noundef %41, ptr noundef nonnull %45, ptr noundef nonnull %2, i64 noundef %46, ptr noundef %49, ptr noundef %51) #14
  %.not42 = icmp eq i32 %52, 0
  br i1 %.not42, label %54, label %53

53:                                               ; preds = %38
  tail call void @mbedtls_debug_print_ret(ptr noundef nonnull %0, i32 noundef 1, ptr noundef nonnull @.str, i32 noundef 1967, ptr noundef nonnull @.str.127, i32 noundef %52) #14
  br label %62

54:                                               ; preds = %38
  %55 = load ptr, ptr %42, align 8, !tbaa !97
  %56 = getelementptr inbounds nuw i8, ptr %55, i64 %1
  %57 = load i64, ptr %2, align 8, !tbaa !3
  %58 = trunc i64 %57 to i16
  %59 = tail call i16 @llvm.bswap.i16(i16 %58)
  store i16 %59, ptr %56, align 1
  %60 = load i64, ptr %2, align 8, !tbaa !3
  %61 = add i64 %60, 2
  store i64 %61, ptr %2, align 8, !tbaa !3
  br label %62

62:                                               ; preds = %54, %53, %37, %33, %24, %11
  %.0 = phi i32 [ -27136, %11 ], [ %23, %24 ], [ -27648, %33 ], [ %52, %53 ], [ 0, %54 ], [ -27904, %37 ]
  ret i32 %.0
}